Archive member included to satisfy reference by file (symbol)

/usr/lib/gcc/arm-none-eabi/9.2.1/libgcc.a(_udivsi3.o)
                              ../build/output/stdio.o (__aeabi_uidiv)
/usr/lib/gcc/arm-none-eabi/9.2.1/libgcc.a(_dvmd_tls.o)
                              /usr/lib/gcc/arm-none-eabi/9.2.1/libgcc.a(_udivsi3.o) (__aeabi_idiv0)

Allocating common symbols
Common symbol       size              file

sMsgQ               0x618             ../build/output/msg.o

Memory Configuration

Name             Origin             Length             Attributes
*default*        0x0000000000000000 0xffffffffffffffff

Linker script and memory map

LOAD ../build/output/Entry.os
LOAD ../build/output/Handler.o
LOAD ../build/output/main.o
LOAD ../build/output/Regs.o
LOAD ../build/output/Interrupt.o
LOAD ../build/output/Uart.o
LOAD ../build/output/Timer.o
LOAD ../build/output/stdlib.o
LOAD ../build/output/stdio.o
LOAD ../build/output/armcpu.o
LOAD ../build/output/task.o
LOAD ../build/output/msg.o
LOAD ../build/output/event.o
LOAD ../build/output/Kernel.o
LOAD /usr/lib/gcc/arm-none-eabi/9.2.1/libgcc.a
                0x0000000000000000                . = 0x0

.text           0x0000000000000000     0x1f14
 *(vector_start)
 *(.text .rodata)
 .text          0x0000000000000000       0xbc ../build/output/Entry.os
                0x0000000000000000                vector_start
                0x000000000000003c                vector_end
 .text          0x00000000000000bc       0x24 ../build/output/Handler.o
                0x00000000000000bc                Irq_Handler
                0x00000000000000d8                Fiq_Handler
 .text          0x00000000000000e0      0x444 ../build/output/main.o
                0x00000000000000e0                main
                0x000000000000031c                User_task0
                0x0000000000000434                User_task1
                0x00000000000004f4                User_task2
 .rodata        0x0000000000000524      0x176 ../build/output/main.o
 .text          0x000000000000069a        0x0 ../build/output/Regs.o
 *fill*         0x000000000000069a        0x2 
 .text          0x000000000000069c      0x2f8 ../build/output/Interrupt.o
                0x000000000000069c                Hal_interrupt_init
                0x0000000000000738                Hal_interrupt_enable
                0x0000000000000804                Hal_interrupt_disable
                0x00000000000008d8                Hal_interrupt_register_handler
                0x0000000000000910                Hal_interrupt_run_handler
 .text          0x0000000000000994      0x1d0 ../build/output/Uart.o
                0x0000000000000994                Hal_uart_init
                0x0000000000000a34                Hal_uart_put_char
                0x0000000000000a90                Hal_uart_get_char
 .text          0x0000000000000b64      0x210 ../build/output/Timer.o
                0x0000000000000b64                Hal_timer_init
                0x0000000000000d08                Hal_timer_get_1ms_counter
 .text          0x0000000000000d74       0xa8 ../build/output/stdlib.o
                0x0000000000000d74                delay
                0x0000000000000dc0                memclr
 .text          0x0000000000000e1c      0x454 ../build/output/stdio.o
                0x0000000000000e1c                putstr
                0x0000000000000e7c                debug_printf
                0x0000000000000ecc                vsprintf
                0x000000000000114c                utoa
 .rodata        0x0000000000001270        0x7 ../build/output/stdio.o
 *fill*         0x0000000000001277        0x1 
 .text          0x0000000000001278       0xb0 ../build/output/armcpu.o
                0x0000000000001278                enable_irq
                0x00000000000012a4                enable_fiq
                0x00000000000012d0                disable_irq
                0x00000000000012fc                disable_fiq
 .text          0x0000000000001328      0x308 ../build/output/task.o
                0x0000000000001328                Kernel_task_init
                0x0000000000001434                Kernel_task_start
                0x0000000000001470                Kernel_task_create
                0x0000000000001504                Kernel_task_scheduler
                0x000000000000155c                Kernel_task_context_switching
 .text          0x0000000000001630      0x41c ../build/output/msg.o
                0x0000000000001630                Kernel_msgQ_init
                0x00000000000016dc                Kernel_msgQ_is_empty
                0x0000000000001764                Kernel_msgQ_is_full
                0x00000000000017f4                Kernel_msgQ_enqueue
                0x000000000000192c                Kernel_msgQ_dequeue
 .text          0x0000000000001a4c       0xf8 ../build/output/event.o
                0x0000000000001a4c                Kernel_event_flag_init
                0x0000000000001a74                Kernel_event_flag_set
                0x0000000000001ab4                Kernel_event_flag_clear
                0x0000000000001af8                Kernel_event_flag_check
 .text          0x0000000000001b44      0x2b8 ../build/output/Kernel.o
                0x0000000000001b44                Kernel_start
                0x0000000000001b58                Kernel_yield
                0x0000000000001b6c                Kernel_send_events
                0x0000000000001bf4                Kernel_wait_events
                0x0000000000001c90                Kernel_send_msg
                0x0000000000001d68                Kernel_recv_msg
 .text          0x0000000000001dfc      0x114 /usr/lib/gcc/arm-none-eabi/9.2.1/libgcc.a(_udivsi3.o)
                0x0000000000001dfc                __udivsi3
                0x0000000000001dfc                __aeabi_uidiv
                0x0000000000001ef0                __aeabi_uidivmod
 .text          0x0000000000001f10        0x4 /usr/lib/gcc/arm-none-eabi/9.2.1/libgcc.a(_dvmd_tls.o)
                0x0000000000001f10                __aeabi_ldiv0
                0x0000000000001f10                __aeabi_idiv0

.glue_7         0x0000000000001f14        0x0
 .glue_7        0x0000000000001f14        0x0 linker stubs

.glue_7t        0x0000000000001f14        0x0
 .glue_7t       0x0000000000001f14        0x0 linker stubs

.vfp11_veneer   0x0000000000001f14        0x0
 .vfp11_veneer  0x0000000000001f14        0x0 linker stubs

.v4_bx          0x0000000000001f14        0x0
 .v4_bx         0x0000000000001f14        0x0 linker stubs

.iplt           0x0000000000001f14        0x0
 .iplt          0x0000000000001f14        0x0 ../build/output/Entry.os

.rel.dyn        0x0000000000001f14        0x0
 .rel.iplt      0x0000000000001f14        0x0 ../build/output/Entry.os

.data           0x0000000000001f14       0x10
 *(.data)
 .data          0x0000000000001f14        0x0 ../build/output/Entry.os
 .data          0x0000000000001f14        0x0 ../build/output/Handler.o
 .data          0x0000000000001f14        0x0 ../build/output/main.o
 .data          0x0000000000001f14       0x10 ../build/output/Regs.o
                0x0000000000001f14                Uart
                0x0000000000001f18                GicCpu
                0x0000000000001f1c                GicDist
                0x0000000000001f20                Timer
 .data          0x0000000000001f24        0x0 ../build/output/Interrupt.o
 .data          0x0000000000001f24        0x0 ../build/output/Uart.o
 .data          0x0000000000001f24        0x0 ../build/output/Timer.o
 .data          0x0000000000001f24        0x0 ../build/output/stdlib.o
 .data          0x0000000000001f24        0x0 ../build/output/stdio.o
 .data          0x0000000000001f24        0x0 ../build/output/armcpu.o
 .data          0x0000000000001f24        0x0 ../build/output/task.o
 .data          0x0000000000001f24        0x0 ../build/output/msg.o
 .data          0x0000000000001f24        0x0 ../build/output/event.o
 .data          0x0000000000001f24        0x0 ../build/output/Kernel.o
 .data          0x0000000000001f24        0x0 /usr/lib/gcc/arm-none-eabi/9.2.1/libgcc.a(_udivsi3.o)
 .data          0x0000000000001f24        0x0 /usr/lib/gcc/arm-none-eabi/9.2.1/libgcc.a(_dvmd_tls.o)

.igot.plt       0x0000000000001f24        0x0
 .igot.plt      0x0000000000001f24        0x0 ../build/output/Entry.os

.bss            0x0000000000001f24     0x102c
 *(.bss)
 .bss           0x0000000000001f24        0x0 ../build/output/Entry.os
 .bss           0x0000000000001f24        0x0 ../build/output/Handler.o
 .bss           0x0000000000001f24        0x0 ../build/output/main.o
 .bss           0x0000000000001f24        0x0 ../build/output/Regs.o
 .bss           0x0000000000001f24      0x3fc ../build/output/Interrupt.o
 .bss           0x0000000000002320        0x0 ../build/output/Uart.o
 .bss           0x0000000000002320        0x4 ../build/output/Timer.o
 .bss           0x0000000000002324        0x0 ../build/output/stdlib.o
 .bss           0x0000000000002324      0x400 ../build/output/stdio.o
 .bss           0x0000000000002724        0x0 ../build/output/armcpu.o
 .bss           0x0000000000002724      0x210 ../build/output/task.o
 .bss           0x0000000000002934        0x0 ../build/output/msg.o
 .bss           0x0000000000002934        0x4 ../build/output/event.o
 .bss           0x0000000000002938        0x0 ../build/output/Kernel.o
 .bss           0x0000000000002938        0x0 /usr/lib/gcc/arm-none-eabi/9.2.1/libgcc.a(_udivsi3.o)
 .bss           0x0000000000002938        0x0 /usr/lib/gcc/arm-none-eabi/9.2.1/libgcc.a(_dvmd_tls.o)
 COMMON         0x0000000000002938      0x618 ../build/output/msg.o
                0x0000000000002938                sMsgQ
OUTPUT(rvpb.axf elf32-littlearm)
LOAD linker stubs

.ARM.attributes
                0x0000000000000000       0x2b
 .ARM.attributes
                0x0000000000000000       0x1d ../build/output/Entry.os
 .ARM.attributes
                0x000000000000001d       0x2f ../build/output/Handler.o
 .ARM.attributes
                0x000000000000004c       0x2f ../build/output/main.o
 .ARM.attributes
                0x000000000000007b       0x2f ../build/output/Regs.o
 .ARM.attributes
                0x00000000000000aa       0x2f ../build/output/Interrupt.o
 .ARM.attributes
                0x00000000000000d9       0x2f ../build/output/Uart.o
 .ARM.attributes
                0x0000000000000108       0x2f ../build/output/Timer.o
 .ARM.attributes
                0x0000000000000137       0x2f ../build/output/stdlib.o
 .ARM.attributes
                0x0000000000000166       0x2f ../build/output/stdio.o
 .ARM.attributes
                0x0000000000000195       0x2f ../build/output/armcpu.o
 .ARM.attributes
                0x00000000000001c4       0x2f ../build/output/task.o
 .ARM.attributes
                0x00000000000001f3       0x2f ../build/output/msg.o
 .ARM.attributes
                0x0000000000000222       0x2f ../build/output/event.o
 .ARM.attributes
                0x0000000000000251       0x2f ../build/output/Kernel.o
 .ARM.attributes
                0x0000000000000280       0x1c /usr/lib/gcc/arm-none-eabi/9.2.1/libgcc.a(_udivsi3.o)
 .ARM.attributes
                0x000000000000029c       0x1c /usr/lib/gcc/arm-none-eabi/9.2.1/libgcc.a(_dvmd_tls.o)

.comment        0x0000000000000000       0x59
 .comment       0x0000000000000000       0x59 ../build/output/Handler.o
                                         0x5a (size before relaxing)
 .comment       0x0000000000000059       0x5a ../build/output/main.o
 .comment       0x0000000000000059       0x5a ../build/output/Regs.o
 .comment       0x0000000000000059       0x5a ../build/output/Interrupt.o
 .comment       0x0000000000000059       0x5a ../build/output/Uart.o
 .comment       0x0000000000000059       0x5a ../build/output/Timer.o
 .comment       0x0000000000000059       0x5a ../build/output/stdlib.o
 .comment       0x0000000000000059       0x5a ../build/output/stdio.o
 .comment       0x0000000000000059       0x5a ../build/output/armcpu.o
 .comment       0x0000000000000059       0x5a ../build/output/task.o
 .comment       0x0000000000000059       0x5a ../build/output/msg.o
 .comment       0x0000000000000059       0x5a ../build/output/event.o
 .comment       0x0000000000000059       0x5a ../build/output/Kernel.o

.debug_line     0x0000000000000000      0xd69
 .debug_line    0x0000000000000000       0x6a ../build/output/Entry.os
 .debug_line    0x000000000000006a       0x51 ../build/output/Handler.o
 .debug_line    0x00000000000000bb      0x17c ../build/output/main.o
 .debug_line    0x0000000000000237       0x6e ../build/output/Regs.o
 .debug_line    0x00000000000002a5      0x127 ../build/output/Interrupt.o
 .debug_line    0x00000000000003cc      0x110 ../build/output/Uart.o
 .debug_line    0x00000000000004dc       0xe2 ../build/output/Timer.o
 .debug_line    0x00000000000005be       0x88 ../build/output/stdlib.o
 .debug_line    0x0000000000000646      0x182 ../build/output/stdio.o
 .debug_line    0x00000000000007c8       0x6c ../build/output/armcpu.o
 .debug_line    0x0000000000000834      0x14d ../build/output/task.o
 .debug_line    0x0000000000000981      0x128 ../build/output/msg.o
 .debug_line    0x0000000000000aa9       0x8f ../build/output/event.o
 .debug_line    0x0000000000000b38      0x166 ../build/output/Kernel.o
 .debug_line    0x0000000000000c9e       0x74 /usr/lib/gcc/arm-none-eabi/9.2.1/libgcc.a(_udivsi3.o)
 .debug_line    0x0000000000000d12       0x57 /usr/lib/gcc/arm-none-eabi/9.2.1/libgcc.a(_dvmd_tls.o)

.debug_info     0x0000000000000000     0x3c00
 .debug_info    0x0000000000000000       0x26 ../build/output/Entry.os
 .debug_info    0x0000000000000026       0x82 ../build/output/Handler.o
 .debug_info    0x00000000000000a8      0x3a7 ../build/output/main.o
 .debug_info    0x000000000000044f     0x124d ../build/output/Regs.o
 .debug_info    0x000000000000169c      0x691 ../build/output/Interrupt.o
 .debug_info    0x0000000000001d2d      0xd08 ../build/output/Uart.o
 .debug_info    0x0000000000002a35      0x2c6 ../build/output/Timer.o
 .debug_info    0x0000000000002cfb       0xf0 ../build/output/stdlib.o
 .debug_info    0x0000000000002deb      0x2be ../build/output/stdio.o
 .debug_info    0x00000000000030a9       0x6e ../build/output/armcpu.o
 .debug_info    0x0000000000003117      0x283 ../build/output/task.o
 .debug_info    0x000000000000339a      0x23d ../build/output/msg.o
 .debug_info    0x00000000000035d7      0x228 ../build/output/event.o
 .debug_info    0x00000000000037ff      0x3b5 ../build/output/Kernel.o
 .debug_info    0x0000000000003bb4       0x26 /usr/lib/gcc/arm-none-eabi/9.2.1/libgcc.a(_udivsi3.o)
 .debug_info    0x0000000000003bda       0x26 /usr/lib/gcc/arm-none-eabi/9.2.1/libgcc.a(_dvmd_tls.o)

.debug_abbrev   0x0000000000000000      0xe09
 .debug_abbrev  0x0000000000000000       0x14 ../build/output/Entry.os
 .debug_abbrev  0x0000000000000014       0x5e ../build/output/Handler.o
 .debug_abbrev  0x0000000000000072      0x117 ../build/output/main.o
 .debug_abbrev  0x0000000000000189      0x11a ../build/output/Regs.o
 .debug_abbrev  0x00000000000002a3      0x19c ../build/output/Interrupt.o
 .debug_abbrev  0x000000000000043f      0x1cd ../build/output/Uart.o
 .debug_abbrev  0x000000000000060c      0x132 ../build/output/Timer.o
 .debug_abbrev  0x000000000000073e       0xc3 ../build/output/stdlib.o
 .debug_abbrev  0x0000000000000801      0x131 ../build/output/stdio.o
 .debug_abbrev  0x0000000000000932       0x2e ../build/output/armcpu.o
 .debug_abbrev  0x0000000000000960      0x168 ../build/output/task.o
 .debug_abbrev  0x0000000000000ac8      0x131 ../build/output/msg.o
 .debug_abbrev  0x0000000000000bf9       0xdf ../build/output/event.o
 .debug_abbrev  0x0000000000000cd8      0x109 ../build/output/Kernel.o
 .debug_abbrev  0x0000000000000de1       0x14 /usr/lib/gcc/arm-none-eabi/9.2.1/libgcc.a(_udivsi3.o)
 .debug_abbrev  0x0000000000000df5       0x14 /usr/lib/gcc/arm-none-eabi/9.2.1/libgcc.a(_dvmd_tls.o)

.debug_aranges  0x0000000000000000      0x1f8
 .debug_aranges
                0x0000000000000000       0x20 ../build/output/Entry.os
 .debug_aranges
                0x0000000000000020       0x20 ../build/output/Handler.o
 .debug_aranges
                0x0000000000000040       0x20 ../build/output/main.o
 .debug_aranges
                0x0000000000000060       0x18 ../build/output/Regs.o
 .debug_aranges
                0x0000000000000078       0x20 ../build/output/Interrupt.o
 .debug_aranges
                0x0000000000000098       0x20 ../build/output/Uart.o
 .debug_aranges
                0x00000000000000b8       0x20 ../build/output/Timer.o
 .debug_aranges
                0x00000000000000d8       0x20 ../build/output/stdlib.o
 .debug_aranges
                0x00000000000000f8       0x20 ../build/output/stdio.o
 .debug_aranges
                0x0000000000000118       0x20 ../build/output/armcpu.o
 .debug_aranges
                0x0000000000000138       0x20 ../build/output/task.o
 .debug_aranges
                0x0000000000000158       0x20 ../build/output/msg.o
 .debug_aranges
                0x0000000000000178       0x20 ../build/output/event.o
 .debug_aranges
                0x0000000000000198       0x20 ../build/output/Kernel.o
 .debug_aranges
                0x00000000000001b8       0x20 /usr/lib/gcc/arm-none-eabi/9.2.1/libgcc.a(_udivsi3.o)
 .debug_aranges
                0x00000000000001d8       0x20 /usr/lib/gcc/arm-none-eabi/9.2.1/libgcc.a(_dvmd_tls.o)

.debug_str      0x0000000000000000     0x1174
 .debug_str     0x0000000000000000       0x3c ../build/output/Entry.os
 .debug_str     0x000000000000003c      0x100 ../build/output/Handler.o
                                        0x139 (size before relaxing)
 .debug_str     0x000000000000013c      0x485 ../build/output/main.o
                                        0x599 (size before relaxing)
 .debug_str     0x00000000000005c1      0x5af ../build/output/Regs.o
                                        0x6ce (size before relaxing)
 .debug_str     0x0000000000000b70       0xbe ../build/output/Interrupt.o
                                        0x3dd (size before relaxing)
 .debug_str     0x0000000000000c2e       0x57 ../build/output/Uart.o
                                        0x838 (size before relaxing)
 .debug_str     0x0000000000000c85       0x5b ../build/output/Timer.o
                                        0x27b (size before relaxing)
 .debug_str     0x0000000000000ce0       0x28 ../build/output/stdlib.o
                                        0x148 (size before relaxing)
 .debug_str     0x0000000000000d08       0x7f ../build/output/stdio.o
                                        0x1b1 (size before relaxing)
 .debug_str     0x0000000000000d87       0x3e ../build/output/armcpu.o
                                         0xe4 (size before relaxing)
 .debug_str     0x0000000000000dc5      0x15c ../build/output/task.o
                                        0x27c (size before relaxing)
 .debug_str     0x0000000000000f21       0xab ../build/output/msg.o
                                        0x21f (size before relaxing)
 .debug_str     0x0000000000000fcc       0x7a ../build/output/event.o
                                        0x519 (size before relaxing)
 .debug_str     0x0000000000001046       0xb0 ../build/output/Kernel.o
                                        0x5ba (size before relaxing)
 .debug_str     0x00000000000010f6       0x7e /usr/lib/gcc/arm-none-eabi/9.2.1/libgcc.a(_udivsi3.o)
                                         0x8a (size before relaxing)
 .debug_str     0x0000000000001174       0x8a /usr/lib/gcc/arm-none-eabi/9.2.1/libgcc.a(_dvmd_tls.o)

.debug_frame    0x0000000000000000      0x780
 .debug_frame   0x0000000000000000       0x50 ../build/output/Handler.o
 .debug_frame   0x0000000000000050       0xfc ../build/output/main.o
 .debug_frame   0x000000000000014c       0xb0 ../build/output/Interrupt.o
 .debug_frame   0x00000000000001fc       0x8c ../build/output/Uart.o
 .debug_frame   0x0000000000000288       0x70 ../build/output/Timer.o
 .debug_frame   0x00000000000002f8       0x50 ../build/output/stdlib.o
 .debug_frame   0x0000000000000348       0xac ../build/output/stdio.o
 .debug_frame   0x00000000000003f4       0x90 ../build/output/armcpu.o
 .debug_frame   0x0000000000000484       0xd4 ../build/output/task.o
 .debug_frame   0x0000000000000558       0xb0 ../build/output/msg.o
 .debug_frame   0x0000000000000608       0x90 ../build/output/event.o
 .debug_frame   0x0000000000000698       0xc8 ../build/output/Kernel.o
 .debug_frame   0x0000000000000760       0x20 /usr/lib/gcc/arm-none-eabi/9.2.1/libgcc.a(_udivsi3.o)
